(dp1
S'train'
p2
(lp3
S'/home/main/python/apple_picking/training_data/grasper_20191127_134506_noimg.csv'
p4
aS'/home/main/python/apple_picking/training_data/grasper_20191127_123231_noimg.csv'
p5
aS'/home/main/python/apple_picking/training_data/grasper_20191127_111634.csv'
p6
aS'/home/main/python/apple_picking/training_data/grasper_20191127_123851_noimg.csv'
p7
aS'/home/main/python/apple_picking/training_data/grasper_20191127_124513_noimg.csv'
p8
aS'/home/main/python/apple_picking/training_data/grasper_20191127_133445_noimg.csv'
p9
aS'/home/main/python/apple_picking/training_data/grasper_20191127_133627_noimg.csv'
p10
aS'/home/main/python/apple_picking/training_data/grasper_20191127_114916_noimg.csv'
p11
aS'/home/main/python/apple_picking/training_data/grasper_20191127_133705_noimg.csv'
p12
aS'/home/main/python/apple_picking/training_data/grasper_20191127_111920.csv'
p13
aS'/home/main/python/apple_picking/training_data/grasper_20191127_121611_noimg.csv'
p14
aS'/home/main/python/apple_picking/training_data/grasper_20191127_111724.csv'
p15
aS'/home/main/python/apple_picking/training_data/grasper_20191127_112529.csv'
p16
aS'/home/main/python/apple_picking/training_data/grasper_20191127_121145_noimg.csv'
p17
aS'/home/main/python/apple_picking/training_data/grasper_20191127_135453_noimg.csv'
p18
aS'/home/main/python/apple_picking/training_data/grasper_20191127_133007_noimg.csv'
p19
aS'/home/main/python/apple_picking/training_data/grasper_20191127_133338_noimg.csv'
p20
aS'/home/main/python/apple_picking/training_data/grasper_20191127_111216.csv'
p21
aS'/home/main/python/apple_picking/training_data/grasper_20191127_135055_noimg.csv'
p22
aS'/home/main/python/apple_picking/training_data/grasper_20191127_112941.csv'
p23
aS'/home/main/python/apple_picking/training_data/grasper_20191127_120457_noimg.csv'
p24
aS'/home/main/python/apple_picking/training_data/grasper_20191127_130151_noimg.csv'
p25
aS'/home/main/python/apple_picking/training_data/grasper_20191127_134431_noimg.csv'
p26
aS'/home/main/python/apple_picking/training_data/grasper_20191127_115126_noimg.csv'
p27
aS'/home/main/python/apple_picking/training_data/grasper_20191127_134637_noimg.csv'
p28
aS'/home/main/python/apple_picking/training_data/grasper_20191127_124048_noimg.csv'
p29
aS'/home/main/python/apple_picking/training_data/grasper_20191127_113332.csv'
p30
aS'/home/main/python/apple_picking/training_data/grasper_20191127_131630_noimg.csv'
p31
aS'/home/main/python/apple_picking/training_data/grasper_20191127_133555_noimg.csv'
p32
aS'/home/main/python/apple_picking/training_data/grasper_20191127_135252_noimg.csv'
p33
aS'/home/main/python/apple_picking/training_data/grasper_20191127_134036_noimg.csv'
p34
aS'/home/main/python/apple_picking/training_data/grasper_20191127_133526_noimg.csv'
p35
aS'/home/main/python/apple_picking/training_data/grasper_20191127_112723.csv'
p36
aS'/home/main/python/apple_picking/training_data/grasper_20191127_112609.csv'
p37
aS'/home/main/python/apple_picking/training_data/grasper_20191127_134111_noimg.csv'
p38
aS'/home/main/python/apple_picking/training_data/grasper_20191127_135152_noimg.csv'
p39
aS'/home/main/python/apple_picking/training_data/grasper_20191127_133411_noimg.csv'
p40
aS'/home/main/python/apple_picking/training_data/grasper_20191127_115908_noimg.csv'
p41
aS'/home/main/python/apple_picking/training_data/grasper_20191127_124156_noimg.csv'
p42
aS'/home/main/python/apple_picking/training_data/grasper_20191127_134534_noimg.csv'
p43
aS'/home/main/python/apple_picking/training_data/grasper_20191127_135127_noimg.csv'
p44
aS'/home/main/python/apple_picking/training_data/grasper_20191127_123339_noimg.csv'
p45
aS'/home/main/python/apple_picking/training_data/grasper_20191127_131714_noimg.csv'
p46
aS'/home/main/python/apple_picking/training_data/grasper_20191127_134211_noimg.csv'
p47
aS'/home/main/python/apple_picking/training_data/grasper_20191127_112333.csv'
p48
aS'/home/main/python/apple_picking/training_data/grasper_20191127_125312_noimg.csv'
p49
aS'/home/main/python/apple_picking/training_data/grasper_20191127_125717_noimg.csv'
p50
aS'/home/main/python/apple_picking/training_data/grasper_20191127_132849_noimg.csv'
p51
aS'/home/main/python/apple_picking/training_data/grasper_20191127_124903_noimg.csv'
p52
aS'/home/main/python/apple_picking/training_data/grasper_20191127_121756_noimg.csv'
p53
aS'/home/main/python/apple_picking/training_data/grasper_20191127_131200_noimg.csv'
p54
aS'/home/main/python/apple_picking/training_data/grasper_20191127_112212.csv'
p55
aS'/home/main/python/apple_picking/training_data/grasper_20191127_130403_noimg.csv'
p56
aS'/home/main/python/apple_picking/training_data/grasper_20191127_113242.csv'
p57
aS'/home/main/python/apple_picking/training_data/grasper_20191127_130227_noimg.csv'
p58
aS'/home/main/python/apple_picking/training_data/grasper_20191127_123407_noimg.csv'
p59
aS'/home/main/python/apple_picking/training_data/grasper_20191127_133816_noimg.csv'
p60
aS'/home/main/python/apple_picking/training_data/grasper_20191127_131548_noimg.csv'
p61
aS'/home/main/python/apple_picking/training_data/grasper_20191127_123510_noimg.csv'
p62
aS'/home/main/python/apple_picking/training_data/grasper_20191127_124127_noimg.csv'
p63
aS'/home/main/python/apple_picking/training_data/grasper_20191127_120542_noimg.csv'
p64
aS'/home/main/python/apple_picking/training_data/grasper_20191127_113703.csv'
p65
aS'/home/main/python/apple_picking/training_data/grasper_20191127_133744_noimg.csv'
p66
aS'/home/main/python/apple_picking/training_data/grasper_20191127_135426_noimg.csv'
p67
aS'/home/main/python/apple_picking/training_data/grasper_20191127_134139_noimg.csv'
p68
aS'/home/main/python/apple_picking/training_data/grasper_20191127_133125_noimg.csv'
p69
aS'/home/main/python/apple_picking/training_data/grasper_20191127_130120_noimg.csv'
p70
aS'/home/main/python/apple_picking/training_data/grasper_20191127_131257_noimg.csv'
p71
aS'/home/main/python/apple_picking/training_data/grasper_20191127_134353_noimg.csv'
p72
aS'/home/main/python/apple_picking/training_data/grasper_20191127_112846.csv'
p73
asS'validation'
p74
(lp75
S'/home/main/python/apple_picking/training_data/grasper_20191127_135024_noimg.csv'
p76
aS'/home/main/python/apple_picking/training_data/grasper_20191127_135323_noimg.csv'
p77
aS'/home/main/python/apple_picking/training_data/grasper_20191127_124541_noimg.csv'
p78
aS'/home/main/python/apple_picking/training_data/grasper_20191127_112410.csv'
p79
aS'/home/main/python/apple_picking/training_data/grasper_20191127_130326_noimg.csv'
p80
aS'/home/main/python/apple_picking/training_data/grasper_20191127_130546_noimg.csv'
p81
aS'/home/main/python/apple_picking/training_data/grasper_20191127_125613_noimg.csv'
p82
aS'/home/main/python/apple_picking/training_data/grasper_20191127_124315_noimg.csv'
p83
as.